; Function Attrs: nounwind uwtable
define void @Java_sun_nio_fs_UnixNativeDispatcher_rewind(ptr noundef %0, ptr nocapture noundef readnone %1, i64 noundef %2) local_unnamed_addr #0 {
  %4 = inttoptr i64 %2 to ptr
  %5 = tail call ptr @__errno_location() #12
  store i32 0, ptr %5, align 4
  tail call void @rewind(ptr noundef %4)
  %6 = tail call i32 @ferror(ptr noundef %4) #11
  %.not = icmp eq i32 %6, 0
  br i1 %.not, label %throwUnixException.exit, label %7

7:                                                ; preds = %3
  %8 = load i32, ptr %5, align 4
  %9 = tail call ptr (ptr, ptr, ptr, ...) @JNU_NewObjectByName(ptr noundef %0, ptr noundef nonnull @.str.46, ptr noundef nonnull @.str.47, i32 noundef %8) #11
  %.not.i = icmp eq ptr %9, null
  br i1 %.not.i, label %throwUnixException.exit, label %10

10:                                               ; preds = %7
  %11 = load ptr, ptr %0, align 8
  %12 = getelementptr inbounds i8, ptr %11, i64 104
  %13 = load ptr, ptr %12, align 8
  %14 = tail call i32 %13(ptr noundef nonnull %0, ptr noundef nonnull %9) #11
  br label %throwUnixException.exit

throwUnixException.exit:                          ; preds = %10, %7, %3
  ret void
}